; Function Attrs: mustprogress uwtable
define internal noundef ptr @"_ZZN4pkpy15__init_builtinsEPNS_2VMEEN4$_848__invokeES1_PNS_8PyObjectE"(ptr noundef nonnull %0, ptr noundef %1) #4 align 2 {
  %3 = alloca ptr, align 8
  call void @llvm.lifetime.start.p0(i64 8, ptr nonnull %3)
  store ptr %1, ptr %3, align 8
  %4 = getelementptr inbounds i8, ptr %0, i64 16
  %5 = tail call i16 @_ZN4pkpy2VM28_find_type_in_cxx_typeid_mapINS_10StringIterEEENS_4TypeEv(ptr noundef nonnull align 8 dereferenceable(264913) %0)
  %6 = call noundef ptr @_ZN4pkpy11ManagedHeap5gcnewINS_10StringIterEJRPNS_8PyObjectEEEES4_NS_4TypeEDpOT0_(ptr noundef nonnull align 8 dereferenceable(84) %4, i16 %5, ptr noundef nonnull align 8 dereferenceable(8) %3)
  call void @llvm.lifetime.end.p0(i64 8, ptr nonnull %3)
  ret ptr %6
}